target datalayout = "e-m:e-p270:32:32-p271:32:32-p272:64:64-i64:64-i128:128-f80:128-n8:16:32:64-S128"
target triple = "x86_64-pc-linux-gnu"

%struct.IndexTupleData = type { %struct.ItemPointerData, i16 }
%struct.ItemPointerData = type { %struct.BlockIdData, i16 }
%struct.BlockIdData = type { i16, i16 }

; Function Attrs: inlinehint nounwind uwtable
define internal i64 @IndexInfoFindDataOffset(i16 noundef zeroext %0) #3 {
  %2 = alloca i64, align 8
  %3 = alloca i16, align 2
  store i16 %0, ptr %3, align 2
  %4 = load i16, ptr %3, align 2
  %5 = zext i16 %4 to i32
  %6 = and i32 %5, 32768
  %7 = icmp ne i32 %6, 0
  br i1 %7, label %9, label %8

8:                                                ; preds = %1
  store i64 8, ptr %2, align 8
  br label %10

9:                                                ; preds = %1
  store i64 16, ptr %2, align 8
  br label %10

10:                                               ; preds = %9, %8
  %11 = load i64, ptr %2, align 8
  ret i64 %11
}

; Function Attrs: nounwind uwtable
define dso_local i32 @_hash_get_indextuple_hashkey(ptr noundef %0) #0 {
  %2 = alloca ptr, align 8
  %3 = alloca ptr, align 8
  store ptr %0, ptr %2, align 8
  call void @llvm.lifetime.start.p0(i64 8, ptr %3) #6
  %4 = load ptr, ptr %2, align 8
  %5 = load ptr, ptr %2, align 8
  %6 = getelementptr inbounds nuw %struct.IndexTupleData, ptr %5, i32 0, i32 1
  %7 = load i16, ptr %6, align 2
  %8 = call i64 @IndexInfoFindDataOffset(i16 noundef zeroext %7)
  %9 = getelementptr inbounds nuw i8, ptr %4, i64 %8
  store ptr %9, ptr %3, align 8
  %10 = load ptr, ptr %3, align 8
  %11 = load i32, ptr %10, align 4
  call void @llvm.lifetime.end.p0(i64 8, ptr %3) #6
  ret i32 %11
}