; Function Attrs: mustprogress nofree norecurse nosync nounwind willreturn memory(argmem: read) uwtable
define dso_local i32 @_hash_get_indextuple_hashkey(ptr noundef readonly captures(none) %0) local_unnamed_addr #4 {
  %2 = getelementptr inbounds nuw i8, ptr %0, i64 6
  %3 = load i16, ptr %2, align 2
  %.not.i = icmp sgt i16 %3, -1
  %..i = select i1 %.not.i, i64 8, i64 16
  %4 = getelementptr inbounds nuw i8, ptr %0, i64 %..i
  %5 = load i32, ptr %4, align 4
  ret i32 %5
}